(lp0
S'Aaron Brooks'
p1
aS'Aaron Gordon'
p2
aS'Aaron Harrison'
p3
aS'Adreian Payne'
p4
aS'Al Horford'
p5
aS'Al Jefferson'
p6
aS'Al-Farouq Aminu'
p7
aS'Alan Anderson'
p8
aS'Alan Williams'
p9
aS'Alec Burks'
p10
aS'Alex Len'
p11
aS'Alex Stepheson'
p12
aS'Alexis Ajinca'
p13
aS'Allen Crabbe'
p14
aS'Alonzo Gee'
p15
aS"Amar'e Stoudemire"
p16
aS'Amir Johnson'
p17
aS'Anderson Varejao'
p18
aS'Andre Drummond'
p19
aS'Andre Iguodala'
p20
aS'Andre Miller'
p21
aS'Andre Roberson'
p22
aS'Andrea Bargnani'
p23
aS'Andrew Bogut'
p24
aS'Andrew Goudelock'
p25
aS'Andrew Nicholson'
p26
aS'Andrew Wiggins'
p27
aS'Anthony Bennett'
p28
aS'Anthony Brown'
p29
aS'Anthony Davis'
p30
aS'Anthony Morrow'
p31
aS'Anthony Tolliver'
p32
aS'Archie Goodwin'
p33
aS'Aron Baynes'
p34
aS'Arron Afflalo'
p35
aS'Austin Rivers'
p36
aS'Avery Bradley'
p37
aS'Axel Toupane'
p38
aS'Ben McLemore'
p39
aS'Beno Udrih'
p40
aS'Bismack Biyombo'
p41
aS'Blake Griffin'
p42
aS'Boban Marjanovic'
p43
aS'Bobby Portis'
p44
aS'Bojan Bogdanovic'
p45
aS'Boris Diaw'
p46
aS'Bradley Beal'
p47
aS'Brandan Wright'
p48
aS'Branden Dawson'
p49
aS'Brandon Bass'
p50
aS'Brandon Jennings'
p51
aS'Brandon Knight'
p52
aS'Brandon Rush'
p53
aS'Brian Roberts'
p54
aS'Briante Weber'
p55
aS'Brook Lopez'
p56
aS'Bruno Caboclo'
p57
aS'Bryce Cotton'
p58
aS'Bryce Dejean-Jones'
p59
aS'C.J. McCollum'
p60
aS'C.J. Miles'
p61
aS'C.J. Watson'
p62
aS'C.J. Wilcox'
p63
aS'Cameron Bairstow'
p64
aS'Cameron Payne'
p65
aS'Carl Landry'
p66
aS'Carmelo Anthony'
p67
aS'Caron Butler'
p68
aS'Chandler Parsons'
p69
aS'Channing Frye'
p70
aS'Charlie Villanueva'
p71
aS'Chase Budinger'
p72
aS'Chris Andersen'
p73
aS'Chris Bosh'
p74
aS'Chris Copeland'
p75
aS'Chris Johnson'
p76
aS'Chris Kaman'
p77
aS'Chris McCullough'
p78
aS'Chris Paul'
p79
aS'Christian Wood'
p80
aS'Chuck Hayes'
p81
aS'Cleanthony Early'
p82
aS'Cliff Alexander'
p83
aS'Clint Capela'
p84
aS'Cody Zeller'
p85
aS'Cole Aldrich'
p86
aS'Corey Brewer'
p87
aS'Cory Jefferson'
p88
aS'Cory Joseph'
p89
aS'Coty Clarke'
p90
aS'Courtney Lee'
p91
aS'Cristiano Felicio'
p92
aS"D'Angelo Russell"
p93
aS'D.J. Augustin'
p94
aS'Dahntay Jones'
p95
aS'Damian Lillard'
p96
aS'Damien Inglis'
p97
aS'Damjan Rudez'
p98
aS'Danilo Gallinari'
p99
aS'Danny Green'
p100
aS'Dante Cunningham'
p101
aS'Darrell Arthur'
p102
aS'Darren Collison'
p103
aS'Darrun Hilliard'
p104
aS'David Lee'
p105
aS'David West'
p106
aS'DeAndre Jordan'
p107
aS'DeJuan Blair'
p108
aS'DeMar DeRozan'
p109
aS'DeMarcus Cousins'
p110
aS'DeMarre Carroll'
p111
aS'Delon Wright'
p112
aS'Dennis Schroder'
p113
aS'Deron Williams'
p114
aS'Derrick Favors'
p115
aS'Derrick Rose'
p116
aS'Derrick Williams'
p117
aS'Devin Booker'
p118
aS'Devin Harris'
p119
aS'Devyn Marble'
p120
aS'Dewayne Dedmon'
p121
aS'Dion Waiters'
p122
aS'Dirk Nowitzki'
p123
aS'Donald Sloan'
p124
aS'Donatas Motiejunas'
p125
aS'Doug McDermott'
p126
aS'Draymond Green'
p127
aS'Drew Gooden'
p128
aS'Duje Dukan'
p129
aS'Dwight Howard'
p130
aS'Dwight Powell'
p131
aS'Dwyane Wade'
p132
aS"E'Twaun Moore"
p133
aS'Ed Davis'
p134
aS'Elfrid Payton'
p135
aS'Elijah Millsap'
p136
aS'Elliot Williams'
p137
aS'Elton Brand'
p138
aS'Emmanuel Mudiay'
p139
aS'Enes Kanter'
p140
aS'Eric Bledsoe'
p141
aS'Eric Gordon'
p142
aS'Eric Moreland'
p143
aS'Erick Green'
p144
aS'Ersan Ilyasova'
p145
aS'Evan Fournier'
p146
aS'Evan Turner'
p147
aS'Festus Ezeli'
p148
aS'Frank Kaminsky'
p149
aS'Garrett Temple'
p150
aS'Gary Harris'
p151
aS'Gary Neal'
p152
aS'George Hill'
p153
aS'Gerald Green'
p154
aS'Gerald Henderson'
p155
aS'Giannis Antetokounmpo'
p156
aS'Glenn Robinson'
p157
aS'Goran Dragic'
p158
aS'Gordon Hayward'
p159
aS'Gorgui Dieng'
p160
aS'Greg Monroe'
p161
aS'Greg Smith'
p162
aS'Greivis Vasquez'
p163
aS'Harrison Barnes'
p164
aS'Hassan Whiteside'
p165
aS'Henry Sims'
p166
aS'Hollis Thompson'
p167
aS'Ian Clark'
p168
aS'Ian Mahinmi'
p169
aS'Iman Shumpert'
p170
aS'Isaiah Canaan'
p171
aS'Isaiah Thomas'
p172
aS'Ish Smith'
p173
aS'J.J. Barea'
p174
aS'J.J. Hickson'
p175
aS"J.J. O'Brien"
p176
aS'J.J. Redick'
p177
aS'J.R. Smith'
p178
aS'JaKarr Sampson'
p179
aS'JaMychal Green'
p180
aS'JaVale McGee'
p181
aS'Jabari Parker'
p182
aS'Jae Crowder'
p183
aS'Jahlil Okafor'
p184
aS'Jamal Crawford'
p185
aS'Jameer Nelson'
p186
aS'James Anderson'
p187
aS'James Ennis'
p188
aS'James Harden'
p189
aS'James Johnson'
p190
aS'James Jones'
p191
aS'James Michael McAdoo'
p192
aS'James Young'
p193
aS'Jared Cunningham'
p194
aS'Jared Dudley'
p195
aS'Jared Sullinger'
p196
aS'Jarell Eddie'
p197
aS'Jarell Martin'
p198
aS'Jarnell Stokes'
p199
aS'Jarrett Jack'
p200
aS'Jason Smith'
p201
aS'Jason Terry'
p202
aS'Jason Thompson'
p203
aS'Jeff Ayres'
p204
aS'Jeff Green'
p205
aS'Jeff Teague'
p206
aS'Jeff Withey'
p207
aS'Jerami Grant'
p208
aS'Jeremy Evans'
p209
aS'Jeremy Lamb'
p210
aS'Jeremy Lin'
p211
aS'Jerian Grant'
p212
aS'Jerryd Bayless'
p213
aS'Jimmer Fredette'
p214
aS'Jimmy Butler'
p215
aS'Joakim Noah'
p216
aS'Jodie Meeks'
p217
aS'Joe Harris'
p218
aS'Joe Ingles'
p219
aS'Joe Johnson'
p220
aS'Joel Anthony'
p221
aS'Joffrey Lauvergne'
p222
aS'John Henson'
p223
aS'John Jenkins'
p224
aS'John Wall'
p225
aS"Johnny O'Bryant"
p226
aS'Jon Leuer'
p227
aS'Jonas Jerebko'
p228
aS'Jonas Valanciunas'
p229
aS'Jonathon Simmons'
p230
aS'Jordan Adams'
p231
aS'Jordan Clarkson'
p232
aS'Jordan Farmar'
p233
aS'Jordan Hamilton'
p234
aS'Jordan Hill'
p235
aS'Jordan McRae'
p236
aS'Jordan Mickey'
p237
aS'Jorge Gutierrez'
p238
aS'Jose Calderon'
p239
aS'Joseph Young'
p240
aS'Josh Huestis'
p241
aS'Josh McRoberts'
p242
aS'Josh Richardson'
p243
aS'Josh Smith'
p244
aS'Jrue Holiday'
p245
aS'Julius Randle'
p246
aS'Justin Anderson'
p247
aS'Justin Harper'
p248
aS'Justin Holiday'
p249
aS'Justise Winslow'
p250
aS'Jusuf Nurkic'
p251
aS'K.J. McDaniels'
p252
aS'Karl-Anthony Towns'
p253
aS'Kawhi Leonard'
p254
aS'Keith Appling'
p255
aS'Kelly Olynyk'
p256
aS'Kelly Oubre'
p257
aS'Kemba Walker'
p258
aS'Kendall Marshall'
p259
aS'Kendrick Perkins'
p260
aS'Kenneth Faried'
p261
aS'Kent Bazemore'
p262
aS'Kentavious Caldwell-Pope'
p263
aS'Kevin Durant'
p264
aS'Kevin Garnett'
p265
aS'Kevin Love'
p266
aS'Kevin Martin'
p267
aS'Kevin Seraphin'
p268
aS'Kevon Looney'
p269
aS'Khris Middleton'
p270
aS'Kirk Hinrich'
p271
aS'Klay Thompson'
p272
aS'Kobe Bryant'
p273
aS'Kosta Koufos'
p274
aS'Kostas Papanikolaou'
p275
aS'Kris Humphries'
p276
aS'Kristaps Porzingis'
p277
aS'Kyle Anderson'
p278
aS'Kyle Korver'
p279
aS'Kyle Lowry'
p280
aS"Kyle O'Quinn"
p281
aS'Kyle Singler'
p282
aS'Kyrie Irving'
p283
aS'LaMarcus Aldridge'
p284
aS'Lamar Patterson'
p285
aS'Lance Stephenson'
p286
aS'Lance Thomas'
p287
aS'Langston Galloway'
p288
aS'Larry Nance Jr.'
p289
aS'Lavoy Allen'
p290
aS'LeBron James'
p291
aS'Leandro Barbosa'
p292
aS'Lorenzo Brown'
p293
aS'Lou Amundson'
p294
aS'Lou Williams'
p295
aS'Luc Mbah a Moute'
p296
aS'Lucas Nogueira'
p297
aS'Luis Montero'
p298
aS'Luis Scola'
p299
aS'Luke Babbitt'
p300
aS'Luol Deng'
p301
aS'Manu Ginobili'
p302
aS'Marc Gasol'
p303
aS'Marcelo Huertas'
p304
aS'Marcin Gortat'
p305
aS'Marco Belinelli'
p306
aS'Marcus Morris'
p307
aS'Marcus Smart'
p308
aS'Marcus Thornton'
p309
aS'Mario Chalmers'
p310
aS'Mario Hezonja'
p311
aS'Markel Brown'
p312
aS'Markieff Morris'
p313
aS'Marreese Speights'
p314
aS'Marvin Williams'
p315
aS'Mason Plumlee'
p316
aS'Matt Barnes'
p317
aS'Matt Bonner'
p318
aS'Matthew Dellavedova'
p319
aS'Maurice Harkless'
p320
aS'Metta World Peace'
p321
aS'Meyers Leonard'
p322
aS'Michael Beasley'
p323
aS'Michael Carter-Williams'
p324
aS'Michael Kidd-Gilchrist'
p325
aS'Mike Conley'
p326
aS'Mike Dunleavy'
p327
aS'Mike Miller'
p328
aS'Mike Muscala'
p329
aS'Mike Scott'
p330
aS'Miles Plumlee'
p331
aS'Mirza Teletovic'
p332
aS'Mitch McGary'
p333
aS'Mo Williams'
p334
aS'Monta Ellis'
p335
aS'Montrezl Harrell'
p336
aS'Myles Turner'
p337
aS'Nate Robinson'
p338
aS'Nazr Mohammed'
p339
aS'Nemanja Bjelica'
p340
aS'Nene Hilario'
p341
aS'Nerlens Noel'
p342
aS'Nick Collison'
p343
aS'Nick Young'
p344
aS'Nicolas Batum'
p345
aS'Nik Stauskas'
p346
aS'Nikola Jokic'
p347
aS'Nikola Mirotic'
p348
aS'Nikola Pekovic'
p349
aS'Nikola Vucevic'
p350
aS'Noah Vonleh'
p351
aS'Norman Powell'
p352
aS'Norris Cole'
p353
aS'O.J. Mayo'
p354
aS'Omer Asik'
p355
aS'Omri Casspi'
p356
aS'Orlando Johnson'
p357
aS'Otto Porter'
p358
aS'P.J. Hairston'
p359
aS'P.J. Tucker'
p360
aS'Pablo Prigioni'
p361
aS'Pat Connaughton'
p362
aS'Patrick Beverley'
p363
aS'Patrick Mills'
p364
aS'Patrick Patterson'
p365
aS'Pau Gasol'
p366
aS'Paul George'
p367
aS'Paul Millsap'
p368
aS'Paul Pierce'
p369
aS'Phil Pressey'
p370
aS'Quincy Acy'
p371
aS'R.J. Hunter'
p372
aS'Rajon Rondo'
p373
aS'Rakeem Christmas'
p374
aS'Ramon Sessions'
p375
aS'Randy Foye'
p376
aS'Rashad Vaughn'
p377
aS'Rasual Butler'
p378
aS'Raul Neto'
p379
aS'Ray McCallum'
p380
aS'Raymond Felton'
p381
aS'Reggie Bullock'
p382
aS'Reggie Jackson'
p383
aS'Richard Jefferson'
p384
aS'Richaun Holmes'
p385
aS'Ricky Rubio'
p386
aS'Robert Covington'
p387
aS'Robert Sacre'
p388
aS'Robin Lopez'
p389
aS'Rodney Hood'
p390
aS'Rodney Stuckey'
p391
aS'Rondae Hollis-Jefferson'
p392
aS'Ronnie Price'
p393
aS'Roy Hibbert'
p394
aS'Rudy Gay'
p395
aS'Rudy Gobert'
p396
aS'Russ Smith'
p397
aS'Russell Westbrook'
p398
aS'Ryan Anderson'
p399
aS'Ryan Hollins'
p400
aS'Ryan Kelly'
p401
aS'Salah Mejri'
p402
aS'Sasha Kaun'
p403
aS'Sasha Vujacic'
p404
aS'Sean Kilpatrick'
p405
aS'Serge Ibaka'
p406
aS'Sergey Karasev'
p407
aS'Seth Curry'
p408
aS'Shabazz Muhammad'
p409
aS'Shabazz Napier'
p410
aS'Shane Larkin'
p411
aS'Shaun Livingston'
p412
aS'Shayne Whittington'
p413
aS'Shelvin Mack'
p414
aS'Solomon Hill'
p415
aS'Sonny Weems'
p416
aS'Spencer Dinwiddie'
p417
aS'Spencer Hawes'
p418
aS'Stanley Johnson'
p419
aS'Stephen Curry'
p420
aS'Steve Blake'
p421
aS'Steve Novak'
p422
aS'Steven Adams'
p423
aS'T.J. McConnell'
p424
aS'T.J. Warren'
p425
aS'Taj Gibson'
p426
aS'Tarik Black'
p427
aS'Tayshaun Prince'
p428
aS'Terrence Jones'
p429
aS'Terrence Ross'
p430
aS'Terry Rozier'
p431
aS'Thabo Sefolosha'
p432
aS'Thaddeus Young'
p433
aS'Thanasis Antetokounmpo'
p434
aS'Thomas Robinson'
p435
aS'Tiago Splitter'
p436
aS'Tibor Pleiss'
p437
aS'Tim Duncan'
p438
aS'Tim Frazier'
p439
aS'Tim Hardaway'
p440
aS'Timofey Mozgov'
p441
aS'Tobias Harris'
p442
aS'Toney Douglas'
p443
aS'Tony Allen'
p444
aS'Tony Parker'
p445
aS'Tony Snell'
p446
aS'Tony Wroten'
p447
aS'Trevor Ariza'
p448
aS'Trevor Booker'
p449
aS'Trey Burke'
p450
aS'Trey Lyles'
p451
aS'Tristan Thompson'
p452
aS'Troy Daniels'
p453
aS'Ty Lawson'
p454
aS'Tyler Ennis'
p455
aS'Tyler Hansbrough'
p456
aS'Tyler Johnson'
p457
aS'Tyler Zeller'
p458
aS'Tyreke Evans'
p459
aS'Tyson Chandler'
p460
aS'Tyus Jones'
p461
aS'Udonis Haslem'
p462
aS'Victor Oladipo'
p463
aS'Vince Carter'
p464
aS'Walter Tavares'
p465
aS'Wayne Ellington'
p466
aS'Wesley Johnson'
p467
aS'Wesley Matthews'
p468
aS'Will Barton'
p469
aS'Willie Cauley-Stein'
p470
aS'Willie Reed'
p471
aS'Xavier Munford'
p472
aS'Zach LaVine'
p473
aS'Zach Randolph'
p474
aS'Zaza Pachulia'
p475
a.